target datalayout = "e-m:e-p270:32:32-p271:32:32-p272:64:64-i64:64-i128:128-f80:128-n8:16:32:64-S128"
target triple = "x86_64-pc-linux-gnu"

%struct.cli_mtarget = type { [10 x i32], ptr, i32, i8, i8, i8 }
%struct.cli_ac_data = type { ptr, i32, i32, i32, ptr, ptr, ptr, ptr, ptr, ptr, [32 x i32], ptr, i32 }
%struct.cli_ctx_tag = type { ptr, ptr, ptr, ptr, ptr, ptr, ptr, i64, ptr, i32, i32, ptr, i32, i32, ptr, [16 x i8], ptr, ptr, ptr, ptr, ptr, ptr, %struct.timeval, i8, i8 }
%struct.timeval = type { i64, i64 }
%struct.cl_engine = type { i32, i32, i32, [2 x i32], i32, i32, i32, ptr, i32, i64, i32, i32, i64, i64, i32, i32, i32, i32, ptr, ptr, ptr, ptr, ptr, ptr, ptr, ptr, ptr, ptr, ptr, ptr, ptr, ptr, ptr, ptr, ptr, ptr, ptr, i64, ptr, %struct.crtmgr, ptr, ptr, ptr, ptr, ptr, ptr, ptr, ptr, ptr, ptr, ptr, ptr, ptr, ptr, ptr, ptr, ptr, %struct.cli_all_bc, [7 x ptr], [7 x i32], i32, i32, i32, i32, i64, i64, i64, i64, i64, ptr, ptr, ptr, ptr, ptr, ptr, ptr, ptr, ptr, i32, i32, i32, i64, i64, i64, ptr }
%struct.crtmgr = type { ptr, i32 }
%struct.cli_all_bc = type { ptr, i32, ptr, %struct.cli_environment, i32 }
%struct.cli_environment = type { i32, i32, i32, i32, i32, i32, i32, [65 x i8], [65 x i8], [65 x i8], [65 x i8], [65 x i8], [65 x i8], [65 x i8], i8, i8, i8, i8, i8, i8, i8, i8, i8 }
%struct.cli_matcher = type { i32, ptr, ptr, ptr, ptr, i32, i32, i32, i32, i32, %struct.cli_hash_patt, %struct.cli_hash_wild, i32, i32, i32, i32, i32, ptr, ptr, ptr, ptr, ptr, ptr, i32, i32, i8, i8, ptr, i16, i8, i32, ptr, i32, i32, i32, ptr, ptr, i32, ptr, i64, i64, ptr }
%struct.cli_hash_patt = type { [3 x %struct.cli_htu32] }
%struct.cli_htu32 = type { ptr, i64, i64, i64 }
%struct.cli_hash_wild = type { [3 x %struct.cli_sz_hash] }
%struct.cli_sz_hash = type { ptr, ptr, i32 }

@.str = private unnamed_addr constant [31 x i8] c"cli_scan_buff: engine == NULL\0A\00", align 1

; Function Attrs: nounwind uwtable
define i32 @cli_scan_buff(ptr noundef %0, i32 noundef %1, i32 noundef %2, ptr noundef %3, i32 noundef %4, ptr noundef %5) #0 {
  %7 = alloca i32, align 4
  %8 = alloca ptr, align 8
  %9 = alloca i32, align 4
  %10 = alloca i32, align 4
  %11 = alloca ptr, align 8
  %12 = alloca i32, align 4
  %13 = alloca ptr, align 8
  %14 = alloca i32, align 4
  %15 = alloca i32, align 4
  %16 = alloca i32, align 4
  %17 = alloca %struct.cli_ac_data, align 8
  %18 = alloca ptr, align 8
  %19 = alloca ptr, align 8
  %20 = alloca ptr, align 8
  %21 = alloca ptr, align 8
  store ptr %0, ptr %8, align 8
  store i32 %1, ptr %9, align 4
  store i32 %2, ptr %10, align 4
  store ptr %3, ptr %11, align 8
  store i32 %4, ptr %12, align 4
  store ptr %5, ptr %13, align 8
  store i32 0, ptr %14, align 4
  store i32 0, ptr %15, align 4
  store i32 0, ptr %16, align 4
  store ptr null, ptr %19, align 8
  store ptr null, ptr %20, align 8
  %22 = load ptr, ptr %11, align 8
  %23 = getelementptr inbounds %struct.cli_ctx_tag, ptr %22, i32 0, i32 6
  %24 = load ptr, ptr %23, align 8
  store ptr %24, ptr %21, align 8
  %25 = load ptr, ptr %21, align 8
  %26 = icmp ne ptr %25, null
  br i1 %26, label %28, label %27

27:                                               ; preds = %6
  call void (ptr, ...) @cli_errmsg(ptr noundef @.str)
  store i32 2, ptr %7, align 4
  br label %182

28:                                               ; preds = %6
  %29 = load ptr, ptr %21, align 8
  %30 = getelementptr inbounds %struct.cl_engine, ptr %29, i32 0, i32 18
  %31 = load ptr, ptr %30, align 8
  %32 = getelementptr inbounds ptr, ptr %31, i64 0
  %33 = load ptr, ptr %32, align 8
  store ptr %33, ptr %18, align 8
  %34 = load i32, ptr %12, align 4
  %35 = icmp ne i32 %34, 0
  br i1 %35, label %36, label %84

36:                                               ; preds = %28
  store i32 1, ptr %15, align 4
  br label %37

37:                                               ; preds = %80, %36
  %38 = load i32, ptr %15, align 4
  %39 = icmp ult i32 %38, 15
  br i1 %39, label %40, label %83

40:                                               ; preds = %37
  store i32 0, ptr %16, align 4
  br label %41

41:                                               ; preds = %72, %40
  %42 = load i32, ptr %16, align 4
  %43 = load i32, ptr %15, align 4
  %44 = zext i32 %43 to i64
  %45 = getelementptr inbounds [15 x %struct.cli_mtarget], ptr @cli_mtargets, i64 0, i64 %44
  %46 = getelementptr inbounds %struct.cli_mtarget, ptr %45, i32 0, i32 5
  %47 = load i8, ptr %46, align 2
  %48 = zext i8 %47 to i32
  %49 = icmp ult i32 %42, %48
  br i1 %49, label %50, label %75

50:                                               ; preds = %41
  %51 = load i32, ptr %15, align 4
  %52 = zext i32 %51 to i64
  %53 = getelementptr inbounds [15 x %struct.cli_mtarget], ptr @cli_mtargets, i64 0, i64 %52
  %54 = getelementptr inbounds %struct.cli_mtarget, ptr %53, i32 0, i32 0
  %55 = load i32, ptr %16, align 4
  %56 = zext i32 %55 to i64
  %57 = getelementptr inbounds [10 x i32], ptr %54, i64 0, i64 %56
  %58 = load i32, ptr %57, align 4
  %59 = load i32, ptr %12, align 4
  %60 = icmp eq i32 %58, %59
  br i1 %60, label %61, label %71

61:                                               ; preds = %50
  %62 = load ptr, ptr %11, align 8
  %63 = getelementptr inbounds %struct.cli_ctx_tag, ptr %62, i32 0, i32 6
  %64 = load ptr, ptr %63, align 8
  %65 = getelementptr inbounds %struct.cl_engine, ptr %64, i32 0, i32 18
  %66 = load ptr, ptr %65, align 8
  %67 = load i32, ptr %15, align 4
  %68 = zext i32 %67 to i64
  %69 = getelementptr inbounds ptr, ptr %66, i64 %68
  %70 = load ptr, ptr %69, align 8
  store ptr %70, ptr %19, align 8
  br label %75

71:                                               ; preds = %50
  br label %72

72:                                               ; preds = %71
  %73 = load i32, ptr %16, align 4
  %74 = add i32 %73, 1
  store i32 %74, ptr %16, align 4
  br label %41

75:                                               ; preds = %61, %41
  %76 = load ptr, ptr %19, align 8
  %77 = icmp ne ptr %76, null
  br i1 %77, label %78, label %79

78:                                               ; preds = %75
  br label %83

79:                                               ; preds = %75
  br label %80

80:                                               ; preds = %79
  %81 = load i32, ptr %15, align 4
  %82 = add i32 %81, 1
  store i32 %82, ptr %15, align 4
  br label %37

83:                                               ; preds = %78, %37
  br label %84

84:                                               ; preds = %83, %28
  %85 = load ptr, ptr %19, align 8
  %86 = icmp ne ptr %85, null
  br i1 %86, label %87, label %138

87:                                               ; preds = %84
  %88 = load ptr, ptr %13, align 8
  %89 = icmp ne ptr %88, null
  br i1 %89, label %106, label %90

90:                                               ; preds = %87
  %91 = load ptr, ptr %19, align 8
  %92 = getelementptr inbounds %struct.cli_matcher, ptr %91, i32 0, i32 12
  %93 = load i32, ptr %92, align 8
  %94 = load ptr, ptr %19, align 8
  %95 = getelementptr inbounds %struct.cli_matcher, ptr %94, i32 0, i32 16
  %96 = load i32, ptr %95, align 8
  %97 = load ptr, ptr %19, align 8
  %98 = getelementptr inbounds %struct.cli_matcher, ptr %97, i32 0, i32 23
  %99 = load i32, ptr %98, align 8
  %100 = call i32 @cli_ac_initdata(ptr noundef %17, i32 noundef %93, i32 noundef %96, i32 noundef %99, i8 noundef zeroext 8)
  store i32 %100, ptr %14, align 4
  %101 = load i32, ptr %14, align 4
  %102 = icmp ne i32 0, %101
  br i1 %102, label %103, label %105

103:                                              ; preds = %90
  %104 = load i32, ptr %14, align 4
  store i32 %104, ptr %7, align 4
  br label %182

105:                                              ; preds = %90
  br label %106

106:                                              ; preds = %105, %87
  %107 = load ptr, ptr %19, align 8
  %108 = load ptr, ptr %8, align 8
  %109 = load i32, ptr %9, align 4
  %110 = load ptr, ptr %13, align 8
  %111 = icmp ne ptr %110, null
  br i1 %111, label %112, label %116

112:                                              ; preds = %106
  %113 = load ptr, ptr %13, align 8
  %114 = getelementptr inbounds ptr, ptr %113, i64 0
  %115 = load ptr, ptr %114, align 8
  br label %117

116:                                              ; preds = %106
  br label %117

117:                                              ; preds = %116, %112
  %118 = phi ptr [ %115, %112 ], [ %17, %116 ]
  %119 = load i32, ptr %10, align 4
  %120 = load i32, ptr %12, align 4
  %121 = load ptr, ptr %11, align 8
  %122 = getelementptr inbounds %struct.cli_ctx_tag, ptr %121, i32 0, i32 14
  %123 = load ptr, ptr %122, align 8
  %124 = load ptr, ptr %11, align 8
  %125 = call i32 @matcher_run(ptr noundef %107, ptr noundef %108, i32 noundef %109, ptr noundef %20, ptr noundef %118, i32 noundef %119, ptr noundef null, i32 noundef %120, ptr noundef null, i32 noundef 1, i32 noundef 1, ptr noundef null, ptr noundef %123, ptr noundef null, ptr noundef null, ptr noundef %124)
  store i32 %125, ptr %14, align 4
  %126 = load ptr, ptr %13, align 8
  %127 = icmp ne ptr %126, null
  br i1 %127, label %129, label %128

128:                                              ; preds = %117
  call void @cli_ac_freedata(ptr noundef %17)
  br label %129

129:                                              ; preds = %128, %117
  %130 = load i32, ptr %14, align 4
  %131 = icmp eq i32 %130, 20
  br i1 %131, label %135, label %132

132:                                              ; preds = %129
  %133 = load i32, ptr %14, align 4
  %134 = icmp eq i32 %133, 1
  br i1 %134, label %135, label %137

135:                                              ; preds = %132, %129
  %136 = load i32, ptr %14, align 4
  store i32 %136, ptr %7, align 4
  br label %182

137:                                              ; preds = %132
  store ptr null, ptr %20, align 8
  br label %138

138:                                              ; preds = %137, %84
  %139 = load ptr, ptr %13, align 8
  %140 = icmp ne ptr %139, null
  br i1 %140, label %157, label %141

141:                                              ; preds = %138
  %142 = load ptr, ptr %18, align 8
  %143 = getelementptr inbounds %struct.cli_matcher, ptr %142, i32 0, i32 12
  %144 = load i32, ptr %143, align 8
  %145 = load ptr, ptr %18, align 8
  %146 = getelementptr inbounds %struct.cli_matcher, ptr %145, i32 0, i32 16
  %147 = load i32, ptr %146, align 8
  %148 = load ptr, ptr %18, align 8
  %149 = getelementptr inbounds %struct.cli_matcher, ptr %148, i32 0, i32 23
  %150 = load i32, ptr %149, align 8
  %151 = call i32 @cli_ac_initdata(ptr noundef %17, i32 noundef %144, i32 noundef %147, i32 noundef %150, i8 noundef zeroext 8)
  store i32 %151, ptr %14, align 4
  %152 = load i32, ptr %14, align 4
  %153 = icmp ne i32 0, %152
  br i1 %153, label %154, label %156

154:                                              ; preds = %141
  %155 = load i32, ptr %14, align 4
  store i32 %155, ptr %7, align 4
  br label %182

156:                                              ; preds = %141
  br label %157

157:                                              ; preds = %156, %138
  %158 = load ptr, ptr %18, align 8
  %159 = load ptr, ptr %8, align 8
  %160 = load i32, ptr %9, align 4
  %161 = load ptr, ptr %13, align 8
  %162 = icmp ne ptr %161, null
  br i1 %162, label %163, label %167

163:                                              ; preds = %157
  %164 = load ptr, ptr %13, align 8
  %165 = getelementptr inbounds ptr, ptr %164, i64 1
  %166 = load ptr, ptr %165, align 8
  br label %168

167:                                              ; preds = %157
  br label %168

168:                                              ; preds = %167, %163
  %169 = phi ptr [ %166, %163 ], [ %17, %167 ]
  %170 = load i32, ptr %10, align 4
  %171 = load i32, ptr %12, align 4
  %172 = load ptr, ptr %11, align 8
  %173 = getelementptr inbounds %struct.cli_ctx_tag, ptr %172, i32 0, i32 14
  %174 = load ptr, ptr %173, align 8
  %175 = load ptr, ptr %11, align 8
  %176 = call i32 @matcher_run(ptr noundef %158, ptr noundef %159, i32 noundef %160, ptr noundef %20, ptr noundef %169, i32 noundef %170, ptr noundef null, i32 noundef %171, ptr noundef null, i32 noundef 1, i32 noundef 1, ptr noundef null, ptr noundef %174, ptr noundef null, ptr noundef null, ptr noundef %175)
  store i32 %176, ptr %14, align 4
  %177 = load ptr, ptr %13, align 8
  %178 = icmp ne ptr %177, null
  br i1 %178, label %180, label %179

179:                                              ; preds = %168
  call void @cli_ac_freedata(ptr noundef %17)
  br label %180

180:                                              ; preds = %179, %168
  %181 = load i32, ptr %14, align 4
  store i32 %181, ptr %7, align 4
  br label %182

182:                                              ; preds = %180, %154, %135, %103, %27
  %183 = load i32, ptr %7, align 4
  ret i32 %183
}