; Function Attrs: nounwind uwtable
define i32 @cli_scan_buff(ptr noundef %0, i32 noundef %1, i32 noundef %2, ptr noundef %3, i32 noundef %4, ptr noundef readonly %5) local_unnamed_addr #0 {
  %7 = alloca %struct.cli_ac_data, align 8
  %8 = alloca ptr, align 8
  store ptr null, ptr %8, align 8
  %9 = getelementptr inbounds i8, ptr %3, i64 48
  %10 = load ptr, ptr %9, align 8
  %.not = icmp eq ptr %10, null
  br i1 %.not, label %11, label %12

11:                                               ; preds = %6
  tail call void (ptr, ...) @cli_errmsg(ptr noundef nonnull @.str) #12
  br label %65

12:                                               ; preds = %6
  %13 = getelementptr inbounds i8, ptr %10, i64 96
  %14 = load ptr, ptr %13, align 8
  %15 = load ptr, ptr %14, align 8
  %.not62 = icmp eq i32 %4, 0
  br i1 %.not62, label %.thread73, label %.preheader

.preheader:                                       ; preds = %12, %.thread
  %indvars.iv84 = phi i64 [ %indvars.iv.next85, %.thread ], [ 1, %12 ]
  %16 = getelementptr inbounds [15 x %struct.cli_mtarget], ptr @cli_mtargets, i64 0, i64 %indvars.iv84
  %17 = getelementptr inbounds i8, ptr %16, i64 54
  %18 = load i8, ptr %17, align 2
  %.not82 = icmp eq i8 %18, 0
  br i1 %.not82, label %.thread, label %.lr.ph.preheader

.lr.ph.preheader:                                 ; preds = %.preheader
  %wide.trip.count = zext i8 %18 to i64
  br label %.lr.ph

19:                                               ; preds = %.lr.ph
  %indvars.iv.next = add nuw nsw i64 %indvars.iv, 1
  %exitcond.not = icmp eq i64 %indvars.iv.next, %wide.trip.count
  br i1 %exitcond.not, label %.thread, label %.lr.ph

.lr.ph:                                           ; preds = %.lr.ph.preheader, %19
  %indvars.iv = phi i64 [ 0, %.lr.ph.preheader ], [ %indvars.iv.next, %19 ]
  %20 = getelementptr inbounds [10 x i32], ptr %16, i64 0, i64 %indvars.iv
  %21 = load i32, ptr %20, align 4
  %22 = icmp eq i32 %21, %4
  br i1 %22, label %23, label %19

23:                                               ; preds = %.lr.ph
  %24 = getelementptr inbounds ptr, ptr %14, i64 %indvars.iv84
  %25 = load ptr, ptr %24, align 8
  %.not63 = icmp eq ptr %25, null
  br i1 %.not63, label %.thread, label %26

.thread:                                          ; preds = %19, %.preheader, %23
  %indvars.iv.next85 = add nuw nsw i64 %indvars.iv84, 1
  %exitcond87.not = icmp eq i64 %indvars.iv.next85, 15
  br i1 %exitcond87.not, label %.thread73, label %.preheader

26:                                               ; preds = %23
  %.not65 = icmp eq ptr %5, null
  br i1 %.not65, label %27, label %35

27:                                               ; preds = %26
  %28 = getelementptr inbounds i8, ptr %25, i64 232
  %29 = load i32, ptr %28, align 8
  %30 = getelementptr inbounds i8, ptr %25, i64 248
  %31 = load i32, ptr %30, align 8
  %32 = getelementptr inbounds i8, ptr %25, i64 304
  %33 = load i32, ptr %32, align 8
  %34 = call i32 @cli_ac_initdata(ptr noundef nonnull %7, i32 noundef %29, i32 noundef %31, i32 noundef %33, i8 noundef zeroext 8) #12
  %.not66 = icmp eq i32 %34, 0
  br i1 %.not66, label %40, label %65

35:                                               ; preds = %26
  %36 = load ptr, ptr %5, align 8
  %37 = getelementptr inbounds i8, ptr %3, i64 96
  %38 = load ptr, ptr %37, align 8
  %39 = call fastcc i32 @matcher_run(ptr noundef nonnull %25, ptr noundef %0, i32 noundef %1, ptr noundef nonnull %8, ptr noundef %36, i32 noundef %2, ptr noundef null, i32 noundef %4, ptr noundef null, i32 noundef 1, i32 noundef 1, ptr noundef null, ptr noundef %38, ptr noundef null, ptr noundef null, ptr noundef %3)
  br label %44

40:                                               ; preds = %27
  %41 = getelementptr inbounds i8, ptr %3, i64 96
  %42 = load ptr, ptr %41, align 8
  %43 = call fastcc i32 @matcher_run(ptr noundef nonnull %25, ptr noundef %0, i32 noundef %1, ptr noundef nonnull %8, ptr noundef nonnull %7, i32 noundef %2, ptr noundef null, i32 noundef %4, ptr noundef null, i32 noundef 1, i32 noundef 1, ptr noundef null, ptr noundef %42, ptr noundef null, ptr noundef null, ptr noundef %3)
  call void @cli_ac_freedata(ptr noundef nonnull %7) #12
  br label %44

44:                                               ; preds = %35, %40
  %45 = phi i32 [ %43, %40 ], [ %39, %35 ]
  switch i32 %45, label %46 [
    i32 20, label %65
    i32 1, label %65
  ]

46:                                               ; preds = %44
  store ptr null, ptr %8, align 8
  br label %.thread73

.thread73:                                        ; preds = %.thread, %12, %46
  %.not67 = icmp eq ptr %5, null
  br i1 %.not67, label %47, label %55

47:                                               ; preds = %.thread73
  %48 = getelementptr inbounds i8, ptr %15, i64 232
  %49 = load i32, ptr %48, align 8
  %50 = getelementptr inbounds i8, ptr %15, i64 248
  %51 = load i32, ptr %50, align 8
  %52 = getelementptr inbounds i8, ptr %15, i64 304
  %53 = load i32, ptr %52, align 8
  %54 = call i32 @cli_ac_initdata(ptr noundef nonnull %7, i32 noundef %49, i32 noundef %51, i32 noundef %53, i8 noundef zeroext 8) #12
  %.not68 = icmp eq i32 %54, 0
  br i1 %.not68, label %61, label %65

55:                                               ; preds = %.thread73
  %56 = getelementptr inbounds i8, ptr %5, i64 8
  %57 = load ptr, ptr %56, align 8
  %58 = getelementptr inbounds i8, ptr %3, i64 96
  %59 = load ptr, ptr %58, align 8
  %60 = call fastcc i32 @matcher_run(ptr noundef %15, ptr noundef %0, i32 noundef %1, ptr noundef nonnull %8, ptr noundef %57, i32 noundef %2, ptr noundef null, i32 noundef %4, ptr noundef null, i32 noundef 1, i32 noundef 1, ptr noundef null, ptr noundef %59, ptr noundef null, ptr noundef null, ptr noundef %3)
  br label %65

61:                                               ; preds = %47
  %62 = getelementptr inbounds i8, ptr %3, i64 96
  %63 = load ptr, ptr %62, align 8
  %64 = call fastcc i32 @matcher_run(ptr noundef nonnull %15, ptr noundef %0, i32 noundef %1, ptr noundef nonnull %8, ptr noundef nonnull %7, i32 noundef %2, ptr noundef null, i32 noundef %4, ptr noundef null, i32 noundef 1, i32 noundef 1, ptr noundef null, ptr noundef %63, ptr noundef null, ptr noundef null, ptr noundef %3)
  call void @cli_ac_freedata(ptr noundef nonnull %7) #12
  br label %65

65:                                               ; preds = %55, %61, %47, %44, %44, %27, %11
  %.0 = phi i32 [ 2, %11 ], [ %34, %27 ], [ %45, %44 ], [ %45, %44 ], [ %54, %47 ], [ %64, %61 ], [ %60, %55 ]
  ret i32 %.0
}